; Function Attrs: nounwind uwtable
define hidden i32 @PyAST_Check(ptr noundef %0) local_unnamed_addr #0 {
  %2 = tail call align 8 ptr @llvm.threadlocal.address.p0(ptr align 8 @_Py_tss_tstate)
  %3 = load ptr, ptr %2, align 8, !tbaa !97
  %4 = getelementptr inbounds nuw i8, ptr %3, i64 16
  %5 = load ptr, ptr %4, align 8, !tbaa !99
  %6 = getelementptr inbounds nuw i8, ptr %5, i64 79792
  %7 = load atomic i8, ptr %6 seq_cst, align 1
  %8 = icmp eq i8 %7, 4
  br i1 %8, label %11, label %_PyOnceFlag_CallOnce.exit.i

_PyOnceFlag_CallOnce.exit.i:                      ; preds = %1
  %9 = tail call i32 @_PyOnceFlag_CallOnceSlow(ptr noundef nonnull %6, ptr noundef nonnull @init_types, ptr noundef nonnull %6) #8
  %.fr.i = freeze i32 %9
  %10 = icmp slt i32 %.fr.i, 0
  br i1 %10, label %get_ast_state.exit, label %11

11:                                               ; preds = %1, %_PyOnceFlag_CallOnce.exit.i
  %12 = getelementptr inbounds nuw i8, ptr %5, i64 79800
  %13 = load ptr, ptr %12, align 8, !tbaa !153
  %14 = tail call i32 @PyObject_IsInstance(ptr noundef %0, ptr noundef %13) #8
  br label %get_ast_state.exit

get_ast_state.exit:                               ; preds = %_PyOnceFlag_CallOnce.exit.i, %11
  %.0 = phi i32 [ %14, %11 ], [ -1, %_PyOnceFlag_CallOnce.exit.i ]
  ret i32 %.0
}